; Function Attrs: nounwind uwtable
define internal fastcc range(i32 -2147483648, 2) i32 @r_Prefix_Step3_Verb(ptr noundef initializes((20, 24)) %0) unnamed_addr #0 {
  %2 = getelementptr inbounds nuw i8, ptr %0, i64 8
  %3 = load i32, ptr %2, align 8
  %4 = getelementptr inbounds nuw i8, ptr %0, i64 20
  store i32 %3, ptr %4, align 4
  %5 = tail call i32 @find_among(ptr noundef %0, ptr noundef nonnull @a_8, i32 noundef 4) #2
  %.not = icmp eq i32 %5, 0
  br i1 %.not, label %38, label %6

6:                                                ; preds = %1
  %7 = load i32, ptr %2, align 8
  %8 = getelementptr inbounds nuw i8, ptr %0, i64 24
  store i32 %7, ptr %8, align 8
  switch i32 %5, label %37 [
    i32 1, label %9
    i32 2, label %16
    i32 3, label %23
    i32 4, label %30
  ]

9:                                                ; preds = %6
  %10 = load ptr, ptr %0, align 8
  %11 = tail call i32 @len_utf8(ptr noundef %10) #2
  %12 = icmp sgt i32 %11, 4
  br i1 %12, label %13, label %38

13:                                               ; preds = %9
  %14 = tail call i32 @slice_from_s(ptr noundef nonnull %0, i32 noundef 2, ptr noundef nonnull @s_61) #2
  %15 = icmp sgt i32 %14, -1
  br i1 %15, label %37, label %38

16:                                               ; preds = %6
  %17 = load ptr, ptr %0, align 8
  %18 = tail call i32 @len_utf8(ptr noundef %17) #2
  %19 = icmp sgt i32 %18, 4
  br i1 %19, label %20, label %38

20:                                               ; preds = %16
  %21 = tail call i32 @slice_from_s(ptr noundef nonnull %0, i32 noundef 2, ptr noundef nonnull @s_62) #2
  %22 = icmp sgt i32 %21, -1
  br i1 %22, label %37, label %38

23:                                               ; preds = %6
  %24 = load ptr, ptr %0, align 8
  %25 = tail call i32 @len_utf8(ptr noundef %24) #2
  %26 = icmp sgt i32 %25, 4
  br i1 %26, label %27, label %38

27:                                               ; preds = %23
  %28 = tail call i32 @slice_from_s(ptr noundef nonnull %0, i32 noundef 2, ptr noundef nonnull @s_63) #2
  %29 = icmp sgt i32 %28, -1
  br i1 %29, label %37, label %38

30:                                               ; preds = %6
  %31 = load ptr, ptr %0, align 8
  %32 = tail call i32 @len_utf8(ptr noundef %31) #2
  %33 = icmp sgt i32 %32, 4
  br i1 %33, label %34, label %38

34:                                               ; preds = %30
  %35 = tail call i32 @slice_from_s(ptr noundef nonnull %0, i32 noundef 2, ptr noundef nonnull @s_64) #2
  %36 = icmp sgt i32 %35, -1
  br i1 %36, label %37, label %38

37:                                               ; preds = %34, %27, %20, %13, %6
  br label %38

38:                                               ; preds = %30, %23, %16, %9, %1, %13, %20, %27, %34, %37
  %.0 = phi i32 [ 1, %37 ], [ %35, %34 ], [ %28, %27 ], [ %21, %20 ], [ %14, %13 ], [ 0, %1 ], [ 0, %9 ], [ 0, %16 ], [ 0, %23 ], [ 0, %30 ]
  ret i32 %.0
}